target datalayout = "e-m:e-p270:32:32-p271:32:32-p272:64:64-i64:64-i128:128-f80:128-n8:16:32:64-S128"
target triple = "x86_64-pc-linux-gnu"

%struct.TupleTableSlotOps = type { i64, ptr, ptr, ptr, ptr, ptr, ptr, ptr, ptr, ptr, ptr, ptr, ptr }
%struct.TuplesortPublic = type { ptr, ptr, ptr, ptr, ptr, ptr, ptr, ptr, ptr, i8, i32, ptr, ptr, i32, i8, ptr }
%struct.SortSupportData = type { ptr, i32, i8, i8, i16, ptr, ptr, i8, ptr, ptr, ptr }
%struct.RelationData = type { %struct.RelFileLocator, ptr, i32, i32, i8, i8, i8, i8, i8, i32, i32, i32, i32, ptr, ptr, i32, %struct.LockInfoData, ptr, ptr, ptr, ptr, ptr, i8, ptr, ptr, ptr, ptr, ptr, ptr, i32, ptr, i8, ptr, ptr, i32, i8, i32, ptr, i8, ptr, ptr, ptr, ptr, ptr, ptr, ptr, i32, ptr, ptr, ptr, ptr, ptr, ptr, ptr, ptr, ptr, ptr, ptr, ptr, ptr, ptr, ptr, ptr, ptr, ptr, ptr, i32, i8, ptr }
%struct.RelFileLocator = type { i32, i32, i32 }
%struct.LockInfoData = type { %struct.LockRelId }
%struct.LockRelId = type { i32, i32 }
%struct.FormData_pg_class = type { i32, %struct.nameData, i32, i32, i32, i32, i32, i32, i32, i32, float, i32, i32, i8, i8, i8, i8, i16, i16, i8, i8, i8, i8, i8, i8, i8, i8, i32, i32, i32 }
%struct.nameData = type { [64 x i8] }
%struct.FormData_pg_index = type { i32, i32, i16, i16, i8, i8, i8, i8, i8, i8, i8, i8, i8, i8, i8, %struct.int2vector }
%struct.int2vector = type { i32, i32, i32, i32, i32, i32, [0 x i16] }
%struct.TuplesortClusterArg = type { ptr, ptr, ptr }
%struct.IndexInfo = type { i32, i32, i32, [32 x i16], ptr, ptr, ptr, ptr, ptr, ptr, ptr, ptr, ptr, ptr, i8, i8, i8, i8, i8, i8, i8, i8, i8, i32, i32, ptr, ptr }
%struct.EState = type { i32, i32, ptr, ptr, ptr, i32, ptr, ptr, ptr, ptr, ptr, ptr, ptr, ptr, ptr, ptr, i32, ptr, ptr, ptr, ptr, ptr, ptr, ptr, ptr, ptr, ptr, i64, i64, i32, i32, i8, ptr, ptr, ptr, ptr, ptr, i8, i32, i32, ptr, i32, ptr, ptr, ptr, ptr }
%struct.ExprContext = type { i32, ptr, ptr, ptr, ptr, ptr, ptr, ptr, ptr, ptr, i64, i8, i64, i8, ptr, ptr, ptr, ptr }
%struct.BTScanInsertData = type { i8, i8, i8, i8, i8, ptr, i32, [32 x %struct.ScanKeyData] }
%struct.ScanKeyData = type { i32, i16, i16, i32, i32, %struct.FmgrInfo, i64 }
%struct.FmgrInfo = type { ptr, i32, i16, i8, i8, i8, ptr, ptr, ptr }

@trace_sort = external global i8, align 1
@.str = private unnamed_addr constant [62 x i8] c"begin tuple sort: nkeys = %d, workMem = %d, randomAccess = %c\00", align 1
@.str.1 = private unnamed_addr constant [20 x i8] c"tuplesortvariants.c\00", align 1
@CurrentMemoryContext = external global ptr, align 8
@__func__.tuplesort_begin_cluster = private unnamed_addr constant [24 x i8] c"tuplesort_begin_cluster\00", align 1
@TTSOpsHeapTuple = external constant %struct.TupleTableSlotOps, align 8

; Function Attrs: inlinehint nounwind uwtable
define internal ptr @MemoryContextSwitchTo(ptr noundef %0) #3 {
  %2 = alloca ptr, align 8
  %3 = alloca ptr, align 8
  store ptr %0, ptr %2, align 8
  call void @llvm.lifetime.start.p0(i64 8, ptr %3) #6
  %4 = load ptr, ptr @CurrentMemoryContext, align 8
  store ptr %4, ptr %3, align 8
  %5 = load ptr, ptr %2, align 8
  store ptr %5, ptr @CurrentMemoryContext, align 8
  %6 = load ptr, ptr %3, align 8
  call void @llvm.lifetime.end.p0(i64 8, ptr %3) #6
  ret ptr %6
}

; Function Attrs: nounwind uwtable
define dso_local ptr @tuplesort_begin_cluster(ptr noundef %0, ptr noundef %1, i32 noundef %2, ptr noundef %3, i32 noundef %4) #0 {
  %6 = alloca ptr, align 8
  %7 = alloca ptr, align 8
  %8 = alloca i32, align 4
  %9 = alloca ptr, align 8
  %10 = alloca i32, align 4
  %11 = alloca ptr, align 8
  %12 = alloca ptr, align 8
  %13 = alloca ptr, align 8
  %14 = alloca ptr, align 8
  %15 = alloca ptr, align 8
  %16 = alloca i32, align 4
  %17 = alloca ptr, align 8
  %18 = alloca ptr, align 8
  %19 = alloca ptr, align 8
  %20 = alloca ptr, align 8
  %21 = alloca i16, align 2
  store ptr %0, ptr %6, align 8
  store ptr %1, ptr %7, align 8
  store i32 %2, ptr %8, align 4
  store ptr %3, ptr %9, align 8
  store i32 %4, ptr %10, align 4
  call void @llvm.lifetime.start.p0(i64 8, ptr %11) #6
  %22 = load i32, ptr %8, align 4
  %23 = load ptr, ptr %9, align 8
  %24 = load i32, ptr %10, align 4
  %25 = call ptr @tuplesort_begin_common(i32 noundef %22, ptr noundef %23, i32 noundef %24)
  store ptr %25, ptr %11, align 8
  call void @llvm.lifetime.start.p0(i64 8, ptr %12) #6
  %26 = load ptr, ptr %11, align 8
  store ptr %26, ptr %12, align 8
  call void @llvm.lifetime.start.p0(i64 8, ptr %13) #6
  call void @llvm.lifetime.start.p0(i64 8, ptr %14) #6
  call void @llvm.lifetime.start.p0(i64 8, ptr %15) #6
  call void @llvm.lifetime.start.p0(i64 4, ptr %16) #6
  %27 = load ptr, ptr %12, align 8
  %28 = getelementptr inbounds nuw %struct.TuplesortPublic, ptr %27, i32 0, i32 6
  %29 = load ptr, ptr %28, align 8
  %30 = call ptr @MemoryContextSwitchTo(ptr noundef %29)
  store ptr %30, ptr %14, align 8
  %31 = call ptr @palloc0(i64 noundef 24)
  store ptr %31, ptr %15, align 8
  %32 = load i8, ptr @trace_sort, align 1, !range !4, !noundef !5
  %33 = trunc i8 %32 to i1
  br i1 %33, label %34, label %56

34:                                               ; preds = %5
  br label %35

35:                                               ; preds = %34
  br i1 false, label %36, label %38

36:                                               ; preds = %35
  %37 = call zeroext i1 @errstart_cold(i32 noundef 15, ptr noundef null) #7
  br i1 %37, label %40, label %53

38:                                               ; preds = %35
  %39 = call zeroext i1 @errstart(i32 noundef 15, ptr noundef null)
  br i1 %39, label %40, label %53

40:                                               ; preds = %38, %36
  %41 = load ptr, ptr %7, align 8
  %42 = getelementptr inbounds nuw %struct.RelationData, ptr %41, i32 0, i32 13
  %43 = load ptr, ptr %42, align 8
  %44 = getelementptr inbounds nuw %struct.FormData_pg_class, ptr %43, i32 0, i32 17
  %45 = load i16, ptr %44, align 4
  %46 = sext i16 %45 to i32
  %47 = load i32, ptr %8, align 4
  %48 = load i32, ptr %10, align 4
  %49 = and i32 %48, 1
  %50 = icmp ne i32 %49, 0
  %51 = select i1 %50, i32 116, i32 102
  %52 = call i32 (ptr, ...) @errmsg_internal(ptr noundef @.str, i32 noundef %46, i32 noundef %47, i32 noundef %51)
  call void @errfinish(ptr noundef @.str.1, i32 noundef 263, ptr noundef @__func__.tuplesort_begin_cluster)
  br label %53

53:                                               ; preds = %40, %38, %36
  br label %54

54:                                               ; preds = %53
  br label %55

55:                                               ; preds = %54
  br label %56

56:                                               ; preds = %55, %5
  %57 = load ptr, ptr %7, align 8
  %58 = getelementptr inbounds nuw %struct.RelationData, ptr %57, i32 0, i32 48
  %59 = load ptr, ptr %58, align 8
  %60 = getelementptr inbounds nuw %struct.FormData_pg_index, ptr %59, i32 0, i32 3
  %61 = load i16, ptr %60, align 2
  %62 = sext i16 %61 to i32
  %63 = load ptr, ptr %12, align 8
  %64 = getelementptr inbounds nuw %struct.TuplesortPublic, ptr %63, i32 0, i32 10
  store i32 %62, ptr %64, align 4
  br label %65

65:                                               ; preds = %56
  br label %66

66:                                               ; preds = %65
  br label %67

67:                                               ; preds = %66
  %68 = load ptr, ptr %12, align 8
  %69 = getelementptr inbounds nuw %struct.TuplesortPublic, ptr %68, i32 0, i32 2
  store ptr @removeabbrev_cluster, ptr %69, align 8
  %70 = load ptr, ptr %12, align 8
  %71 = getelementptr inbounds nuw %struct.TuplesortPublic, ptr %70, i32 0, i32 0
  store ptr @comparetup_cluster, ptr %71, align 8
  %72 = load ptr, ptr %12, align 8
  %73 = getelementptr inbounds nuw %struct.TuplesortPublic, ptr %72, i32 0, i32 1
  store ptr @comparetup_cluster_tiebreak, ptr %73, align 8
  %74 = load ptr, ptr %12, align 8
  %75 = getelementptr inbounds nuw %struct.TuplesortPublic, ptr %74, i32 0, i32 3
  store ptr @writetup_cluster, ptr %75, align 8
  %76 = load ptr, ptr %12, align 8
  %77 = getelementptr inbounds nuw %struct.TuplesortPublic, ptr %76, i32 0, i32 4
  store ptr @readtup_cluster, ptr %77, align 8
  %78 = load ptr, ptr %12, align 8
  %79 = getelementptr inbounds nuw %struct.TuplesortPublic, ptr %78, i32 0, i32 5
  store ptr @freestate_cluster, ptr %79, align 8
  %80 = load ptr, ptr %15, align 8
  %81 = load ptr, ptr %12, align 8
  %82 = getelementptr inbounds nuw %struct.TuplesortPublic, ptr %81, i32 0, i32 15
  store ptr %80, ptr %82, align 8
  %83 = load ptr, ptr %7, align 8
  %84 = call ptr @BuildIndexInfo(ptr noundef %83)
  %85 = load ptr, ptr %15, align 8
  %86 = getelementptr inbounds nuw %struct.TuplesortClusterArg, ptr %85, i32 0, i32 1
  store ptr %84, ptr %86, align 8
  %87 = load ptr, ptr %15, align 8
  %88 = getelementptr inbounds nuw %struct.TuplesortClusterArg, ptr %87, i32 0, i32 1
  %89 = load ptr, ptr %88, align 8
  %90 = getelementptr inbounds nuw %struct.IndexInfo, ptr %89, i32 0, i32 3
  %91 = getelementptr inbounds [32 x i16], ptr %90, i64 0, i64 0
  %92 = load i16, ptr %91, align 4
  %93 = sext i16 %92 to i32
  %94 = icmp eq i32 %93, 0
  br i1 %94, label %95, label %98

95:                                               ; preds = %67
  %96 = load ptr, ptr %12, align 8
  %97 = getelementptr inbounds nuw %struct.TuplesortPublic, ptr %96, i32 0, i32 9
  store i8 0, ptr %97, align 8
  br label %101

98:                                               ; preds = %67
  %99 = load ptr, ptr %12, align 8
  %100 = getelementptr inbounds nuw %struct.TuplesortPublic, ptr %99, i32 0, i32 9
  store i8 1, ptr %100, align 8
  br label %101

101:                                              ; preds = %98, %95
  %102 = load ptr, ptr %6, align 8
  %103 = load ptr, ptr %15, align 8
  %104 = getelementptr inbounds nuw %struct.TuplesortClusterArg, ptr %103, i32 0, i32 0
  store ptr %102, ptr %104, align 8
  %105 = load ptr, ptr %7, align 8
  %106 = call ptr @_bt_mkscankey(ptr noundef %105, ptr noundef null)
  store ptr %106, ptr %13, align 8
  %107 = load ptr, ptr %15, align 8
  %108 = getelementptr inbounds nuw %struct.TuplesortClusterArg, ptr %107, i32 0, i32 1
  %109 = load ptr, ptr %108, align 8
  %110 = getelementptr inbounds nuw %struct.IndexInfo, ptr %109, i32 0, i32 4
  %111 = load ptr, ptr %110, align 8
  %112 = icmp ne ptr %111, null
  br i1 %112, label %113, label %141

113:                                              ; preds = %101
  call void @llvm.lifetime.start.p0(i64 8, ptr %17) #6
  call void @llvm.lifetime.start.p0(i64 8, ptr %18) #6
  %114 = call ptr @CreateExecutorState()
  %115 = load ptr, ptr %15, align 8
  %116 = getelementptr inbounds nuw %struct.TuplesortClusterArg, ptr %115, i32 0, i32 2
  store ptr %114, ptr %116, align 8
  %117 = load ptr, ptr %6, align 8
  %118 = call ptr @MakeSingleTupleTableSlot(ptr noundef %117, ptr noundef @TTSOpsHeapTuple)
  store ptr %118, ptr %17, align 8
  %119 = load ptr, ptr %15, align 8
  %120 = getelementptr inbounds nuw %struct.TuplesortClusterArg, ptr %119, i32 0, i32 2
  %121 = load ptr, ptr %120, align 8
  %122 = getelementptr inbounds nuw %struct.EState, ptr %121, i32 0, i32 35
  %123 = load ptr, ptr %122, align 8
  %124 = icmp ne ptr %123, null
  br i1 %124, label %125, label %131

125:                                              ; preds = %113
  %126 = load ptr, ptr %15, align 8
  %127 = getelementptr inbounds nuw %struct.TuplesortClusterArg, ptr %126, i32 0, i32 2
  %128 = load ptr, ptr %127, align 8
  %129 = getelementptr inbounds nuw %struct.EState, ptr %128, i32 0, i32 35
  %130 = load ptr, ptr %129, align 8
  br label %136

131:                                              ; preds = %113
  %132 = load ptr, ptr %15, align 8
  %133 = getelementptr inbounds nuw %struct.TuplesortClusterArg, ptr %132, i32 0, i32 2
  %134 = load ptr, ptr %133, align 8
  %135 = call ptr @MakePerTupleExprContext(ptr noundef %134)
  br label %136

136:                                              ; preds = %131, %125
  %137 = phi ptr [ %130, %125 ], [ %135, %131 ]
  store ptr %137, ptr %18, align 8
  %138 = load ptr, ptr %17, align 8
  %139 = load ptr, ptr %18, align 8
  %140 = getelementptr inbounds nuw %struct.ExprContext, ptr %139, i32 0, i32 1
  store ptr %138, ptr %140, align 8
  call void @llvm.lifetime.end.p0(i64 8, ptr %18) #6
  call void @llvm.lifetime.end.p0(i64 8, ptr %17) #6
  br label %141

141:                                              ; preds = %136, %101
  %142 = load ptr, ptr %12, align 8
  %143 = getelementptr inbounds nuw %struct.TuplesortPublic, ptr %142, i32 0, i32 10
  %144 = load i32, ptr %143, align 4
  %145 = sext i32 %144 to i64
  %146 = mul i64 %145, 64
  %147 = call ptr @palloc0(i64 noundef %146)
  %148 = load ptr, ptr %12, align 8
  %149 = getelementptr inbounds nuw %struct.TuplesortPublic, ptr %148, i32 0, i32 11
  store ptr %147, ptr %149, align 8
  store i32 0, ptr %16, align 4
  br label %150

150:                                              ; preds = %212, %141
  %151 = load i32, ptr %16, align 4
  %152 = load ptr, ptr %12, align 8
  %153 = getelementptr inbounds nuw %struct.TuplesortPublic, ptr %152, i32 0, i32 10
  %154 = load i32, ptr %153, align 4
  %155 = icmp slt i32 %151, %154
  br i1 %155, label %156, label %215

156:                                              ; preds = %150
  call void @llvm.lifetime.start.p0(i64 8, ptr %19) #6
  %157 = load ptr, ptr %12, align 8
  %158 = getelementptr inbounds nuw %struct.TuplesortPublic, ptr %157, i32 0, i32 11
  %159 = load ptr, ptr %158, align 8
  %160 = load i32, ptr %16, align 4
  %161 = sext i32 %160 to i64
  %162 = getelementptr inbounds %struct.SortSupportData, ptr %159, i64 %161
  store ptr %162, ptr %19, align 8
  call void @llvm.lifetime.start.p0(i64 8, ptr %20) #6
  %163 = load ptr, ptr %13, align 8
  %164 = getelementptr inbounds nuw %struct.BTScanInsertData, ptr %163, i32 0, i32 7
  %165 = getelementptr inbounds [32 x %struct.ScanKeyData], ptr %164, i64 0, i64 0
  %166 = load i32, ptr %16, align 4
  %167 = sext i32 %166 to i64
  %168 = getelementptr inbounds %struct.ScanKeyData, ptr %165, i64 %167
  store ptr %168, ptr %20, align 8
  call void @llvm.lifetime.start.p0(i64 2, ptr %21) #6
  %169 = load ptr, ptr @CurrentMemoryContext, align 8
  %170 = load ptr, ptr %19, align 8
  %171 = getelementptr inbounds nuw %struct.SortSupportData, ptr %170, i32 0, i32 0
  store ptr %169, ptr %171, align 8
  %172 = load ptr, ptr %20, align 8
  %173 = getelementptr inbounds nuw %struct.ScanKeyData, ptr %172, i32 0, i32 4
  %174 = load i32, ptr %173, align 4
  %175 = load ptr, ptr %19, align 8
  %176 = getelementptr inbounds nuw %struct.SortSupportData, ptr %175, i32 0, i32 1
  store i32 %174, ptr %176, align 8
  %177 = load ptr, ptr %20, align 8
  %178 = getelementptr inbounds nuw %struct.ScanKeyData, ptr %177, i32 0, i32 0
  %179 = load i32, ptr %178, align 8
  %180 = and i32 %179, 33554432
  %181 = icmp ne i32 %180, 0
  %182 = load ptr, ptr %19, align 8
  %183 = getelementptr inbounds nuw %struct.SortSupportData, ptr %182, i32 0, i32 3
  %184 = zext i1 %181 to i8
  store i8 %184, ptr %183, align 1
  %185 = load ptr, ptr %20, align 8
  %186 = getelementptr inbounds nuw %struct.ScanKeyData, ptr %185, i32 0, i32 1
  %187 = load i16, ptr %186, align 4
  %188 = load ptr, ptr %19, align 8
  %189 = getelementptr inbounds nuw %struct.SortSupportData, ptr %188, i32 0, i32 4
  store i16 %187, ptr %189, align 2
  %190 = load i32, ptr %16, align 4
  %191 = icmp eq i32 %190, 0
  br i1 %191, label %192, label %197

192:                                              ; preds = %156
  %193 = load ptr, ptr %12, align 8
  %194 = getelementptr inbounds nuw %struct.TuplesortPublic, ptr %193, i32 0, i32 9
  %195 = load i8, ptr %194, align 8, !range !4, !noundef !5
  %196 = trunc i8 %195 to i1
  br label %197

197:                                              ; preds = %192, %156
  %198 = phi i1 [ false, %156 ], [ %196, %192 ]
  %199 = load ptr, ptr %19, align 8
  %200 = getelementptr inbounds nuw %struct.SortSupportData, ptr %199, i32 0, i32 7
  %201 = zext i1 %198 to i8
  store i8 %201, ptr %200, align 8
  %202 = load ptr, ptr %20, align 8
  %203 = getelementptr inbounds nuw %struct.ScanKeyData, ptr %202, i32 0, i32 0
  %204 = load i32, ptr %203, align 8
  %205 = and i32 %204, 16777216
  %206 = icmp ne i32 %205, 0
  %207 = select i1 %206, i32 5, i32 1
  %208 = trunc i32 %207 to i16
  store i16 %208, ptr %21, align 2
  %209 = load ptr, ptr %7, align 8
  %210 = load i16, ptr %21, align 2
  %211 = load ptr, ptr %19, align 8
  call void @PrepareSortSupportFromIndexRel(ptr noundef %209, i16 noundef signext %210, ptr noundef %211)
  call void @llvm.lifetime.end.p0(i64 2, ptr %21) #6
  call void @llvm.lifetime.end.p0(i64 8, ptr %20) #6
  call void @llvm.lifetime.end.p0(i64 8, ptr %19) #6
  br label %212

212:                                              ; preds = %197
  %213 = load i32, ptr %16, align 4
  %214 = add i32 %213, 1
  store i32 %214, ptr %16, align 4
  br label %150, !llvm.loop !10

215:                                              ; preds = %150
  %216 = load ptr, ptr %13, align 8
  call void @pfree(ptr noundef %216)
  %217 = load ptr, ptr %14, align 8
  %218 = call ptr @MemoryContextSwitchTo(ptr noundef %217)
  %219 = load ptr, ptr %11, align 8
  call void @llvm.lifetime.end.p0(i64 4, ptr %16) #6
  call void @llvm.lifetime.end.p0(i64 8, ptr %15) #6
  call void @llvm.lifetime.end.p0(i64 8, ptr %14) #6
  call void @llvm.lifetime.end.p0(i64 8, ptr %13) #6
  call void @llvm.lifetime.end.p0(i64 8, ptr %12) #6
  call void @llvm.lifetime.end.p0(i64 8, ptr %11) #6
  ret ptr %219
}