; Function Attrs: nounwind uwtable
define dso_local ptr @tuplesort_begin_cluster(ptr noundef %0, ptr noundef %1, i32 noundef %2, ptr noundef %3, i32 noundef %4) local_unnamed_addr #0 {
  %6 = tail call ptr @tuplesort_begin_common(i32 noundef %2, ptr noundef %3, i32 noundef %4) #12
  %7 = getelementptr inbounds nuw i8, ptr %6, i64 48
  %8 = load ptr, ptr %7, align 8
  %9 = load ptr, ptr @CurrentMemoryContext, align 8
  store ptr %8, ptr @CurrentMemoryContext, align 8
  %10 = tail call ptr @palloc0(i64 noundef 24) #12
  %11 = load i8, ptr @trace_sort, align 1, !range !4, !noundef !5
  %12 = trunc nuw i8 %11 to i1
  br i1 %12, label %13, label %24

13:                                               ; preds = %5
  %14 = tail call zeroext i1 @errstart(i32 noundef 15, ptr noundef null) #12
  br i1 %14, label %15, label %24

15:                                               ; preds = %13
  %16 = getelementptr inbounds nuw i8, ptr %1, i64 56
  %17 = load ptr, ptr %16, align 8
  %18 = getelementptr inbounds nuw i8, ptr %17, i64 116
  %19 = load i16, ptr %18, align 4
  %20 = sext i16 %19 to i32
  %21 = and i32 %4, 1
  %.not = icmp eq i32 %21, 0
  %22 = select i1 %.not, i32 102, i32 116
  %23 = tail call i32 (ptr, ...) @errmsg_internal(ptr noundef nonnull @.str, i32 noundef %20, i32 noundef %2, i32 noundef %22) #12
  tail call void @errfinish(ptr noundef nonnull @.str.1, i32 noundef 263, ptr noundef nonnull @__func__.tuplesort_begin_cluster) #12
  br label %24

24:                                               ; preds = %13, %15, %5
  %25 = getelementptr inbounds nuw i8, ptr %1, i64 328
  %26 = load ptr, ptr %25, align 8
  %27 = getelementptr inbounds nuw i8, ptr %26, i64 10
  %28 = load i16, ptr %27, align 2
  %29 = sext i16 %28 to i32
  %30 = getelementptr inbounds nuw i8, ptr %6, i64 76
  store i32 %29, ptr %30, align 4
  %31 = getelementptr inbounds nuw i8, ptr %6, i64 16
  store ptr @removeabbrev_cluster, ptr %31, align 8
  store ptr @comparetup_cluster, ptr %6, align 8
  %32 = getelementptr inbounds nuw i8, ptr %6, i64 8
  store ptr @comparetup_cluster_tiebreak, ptr %32, align 8
  %33 = getelementptr inbounds nuw i8, ptr %6, i64 24
  store ptr @writetup_cluster, ptr %33, align 8
  %34 = getelementptr inbounds nuw i8, ptr %6, i64 32
  store ptr @readtup_cluster, ptr %34, align 8
  %35 = getelementptr inbounds nuw i8, ptr %6, i64 40
  store ptr @freestate_cluster, ptr %35, align 8
  %36 = getelementptr inbounds nuw i8, ptr %6, i64 104
  store ptr %10, ptr %36, align 8
  %37 = tail call ptr @BuildIndexInfo(ptr noundef %1) #12
  %38 = getelementptr inbounds nuw i8, ptr %10, i64 8
  store ptr %37, ptr %38, align 8
  %39 = getelementptr inbounds nuw i8, ptr %37, i64 12
  %40 = load i16, ptr %39, align 4
  %41 = icmp ne i16 %40, 0
  %spec.select = zext i1 %41 to i8
  %42 = getelementptr inbounds nuw i8, ptr %6, i64 72
  store i8 %spec.select, ptr %42, align 8
  store ptr %0, ptr %10, align 8
  %43 = tail call ptr @_bt_mkscankey(ptr noundef nonnull %1, ptr noundef null) #12
  %44 = load ptr, ptr %38, align 8
  %45 = getelementptr inbounds nuw i8, ptr %44, i64 80
  %46 = load ptr, ptr %45, align 8
  %.not60 = icmp eq ptr %46, null
  br i1 %.not60, label %59, label %47

47:                                               ; preds = %24
  %48 = tail call ptr @CreateExecutorState() #12
  %49 = getelementptr inbounds nuw i8, ptr %10, i64 16
  store ptr %48, ptr %49, align 8
  %50 = tail call ptr @MakeSingleTupleTableSlot(ptr noundef %0, ptr noundef nonnull @TTSOpsHeapTuple) #12
  %51 = load ptr, ptr %49, align 8
  %52 = getelementptr inbounds nuw i8, ptr %51, i64 264
  %53 = load ptr, ptr %52, align 8
  %.not61 = icmp eq ptr %53, null
  br i1 %.not61, label %54, label %56

54:                                               ; preds = %47
  %55 = tail call ptr @MakePerTupleExprContext(ptr noundef nonnull %51) #12
  br label %56

56:                                               ; preds = %47, %54
  %57 = phi ptr [ %55, %54 ], [ %53, %47 ]
  %58 = getelementptr inbounds nuw i8, ptr %57, i64 8
  store ptr %50, ptr %58, align 8
  br label %59

59:                                               ; preds = %56, %24
  %60 = load i32, ptr %30, align 4
  %61 = sext i32 %60 to i64
  %62 = shl nsw i64 %61, 6
  %63 = tail call ptr @palloc0(i64 noundef %62) #12
  %64 = getelementptr inbounds nuw i8, ptr %6, i64 80
  store ptr %63, ptr %64, align 8
  %65 = load i32, ptr %30, align 4
  %66 = icmp sgt i32 %65, 0
  br i1 %66, label %.lr.ph, label %._crit_edge

.lr.ph:                                           ; preds = %59
  %67 = getelementptr inbounds nuw i8, ptr %43, i64 24
  br label %68

68:                                               ; preds = %.lr.ph, %87
  %indvars.iv = phi i64 [ 0, %.lr.ph ], [ %indvars.iv.next, %87 ]
  %69 = load ptr, ptr %64, align 8
  %70 = getelementptr inbounds nuw %struct.SortSupportData, ptr %69, i64 %indvars.iv
  %71 = getelementptr inbounds nuw %struct.ScanKeyData, ptr %67, i64 %indvars.iv
  %72 = load ptr, ptr @CurrentMemoryContext, align 8
  store ptr %72, ptr %70, align 8
  %73 = getelementptr inbounds nuw i8, ptr %71, i64 12
  %74 = load i32, ptr %73, align 4
  %75 = getelementptr inbounds nuw i8, ptr %70, i64 8
  store i32 %74, ptr %75, align 8
  %76 = load i32, ptr %71, align 8
  %77 = getelementptr inbounds nuw i8, ptr %70, i64 13
  %78 = lshr i32 %76, 25
  %79 = trunc nuw nsw i32 %78 to i8
  %80 = and i8 %79, 1
  store i8 %80, ptr %77, align 1
  %81 = getelementptr inbounds nuw i8, ptr %71, i64 4
  %82 = load i16, ptr %81, align 4
  %83 = getelementptr inbounds nuw i8, ptr %70, i64 14
  store i16 %82, ptr %83, align 2
  %84 = icmp eq i64 %indvars.iv, 0
  br i1 %84, label %85, label %87

85:                                               ; preds = %68
  %86 = load i8, ptr %42, align 8, !range !4, !noundef !5
  br label %87

87:                                               ; preds = %85, %68
  %88 = phi i8 [ 0, %68 ], [ %86, %85 ]
  %89 = getelementptr inbounds nuw i8, ptr %70, i64 32
  store i8 %88, ptr %89, align 8
  %90 = load i32, ptr %71, align 8
  %91 = and i32 %90, 16777216
  %.not62 = icmp eq i32 %91, 0
  %92 = select i1 %.not62, i16 1, i16 5
  tail call void @PrepareSortSupportFromIndexRel(ptr noundef nonnull %1, i16 noundef signext %92, ptr noundef nonnull %70) #12
  %indvars.iv.next = add nuw nsw i64 %indvars.iv, 1
  %93 = load i32, ptr %30, align 4
  %94 = sext i32 %93 to i64
  %95 = icmp slt i64 %indvars.iv.next, %94
  br i1 %95, label %68, label %._crit_edge, !llvm.loop !10

._crit_edge:                                      ; preds = %87, %59
  tail call void @pfree(ptr noundef %43) #12
  store ptr %9, ptr @CurrentMemoryContext, align 8
  ret ptr %6
}